; Function Attrs: mustprogress nofree norecurse nosync nounwind willreturn memory(read, inaccessiblemem: none) uwtable
define dso_local noundef nonnull align 8 dereferenceable(305) ptr @_ZNK5clang6format16BreakableComment7tokenAtEj(ptr nocapture noundef nonnull readonly align 8 dereferenceable(824) %0, i32 noundef %1) local_unnamed_addr #8 align 2 {
  %3 = getelementptr inbounds nuw i8, ptr %0, i64 576
  %4 = zext i32 %1 to i64
  %5 = load ptr, ptr %3, align 8
  %6 = getelementptr inbounds ptr, ptr %5, i64 %4
  %7 = load ptr, ptr %6, align 8
  %.not = icmp eq ptr %7, null
  %8 = getelementptr inbounds nuw i8, ptr %0, i64 8
  %.val = load ptr, ptr %8, align 8
  %9 = select i1 %.not, ptr %.val, ptr %7
  ret ptr %9
}